; Function Attrs: mustprogress uwtable
define noundef i32 @_ZNK11llama_vocab4impl14token_get_attrEi(ptr noundef nonnull readonly align 8 captures(none) dereferenceable(360) %0, i32 noundef %1) local_unnamed_addr #0 align 2 {
  %3 = getelementptr inbounds nuw i8, ptr %0, i64 4
  %4 = load i32, ptr %3, align 4, !tbaa !15
  %.not = icmp eq i32 %4, 0
  br i1 %.not, label %5, label %6

5:                                                ; preds = %2
  tail call void (ptr, i32, ptr, ...) @ggml_abort(ptr noundef nonnull @.str.62, i32 noundef 2115, ptr noundef nonnull @.str.63, ptr noundef nonnull @.str.118) #31
  unreachable

6:                                                ; preds = %2
  %7 = getelementptr inbounds nuw i8, ptr %0, i64 144
  %8 = sext i32 %1 to i64
  %9 = getelementptr inbounds nuw i8, ptr %0, i64 152
  %10 = load ptr, ptr %9, align 8, !tbaa !70
  %11 = load ptr, ptr %7, align 8, !tbaa !71
  %12 = ptrtoint ptr %10 to i64
  %13 = ptrtoint ptr %11 to i64
  %14 = sub i64 %12, %13
  %15 = sdiv exact i64 %14, 40
  %.not.i.i = icmp ugt i64 %15, %8
  br i1 %.not.i.i, label %_ZNKSt6vectorIN11llama_vocab10token_dataESaIS1_EE2atEm.exit, label %16

16:                                               ; preds = %6
  tail call void (ptr, ...) @_ZSt24__throw_out_of_range_fmtPKcz(ptr noundef nonnull @.str.179, i64 noundef %8, i64 noundef %15) #31
  unreachable

_ZNKSt6vectorIN11llama_vocab10token_dataESaIS1_EE2atEm.exit: ; preds = %6
  %17 = getelementptr inbounds nuw %"struct.llama_vocab::token_data", ptr %11, i64 %8, i32 2
  %18 = load i32, ptr %17, align 4, !tbaa !111
  ret i32 %18
}